; Function Attrs: mustprogress nofree norecurse nosync nounwind memory(read, argmem: readwrite, inaccessiblemem: none) uwtable
define dso_local { ptr, i64 } @_ZN4llvm7TGLexer16prepLexMacroNameEv(ptr nocapture noundef nonnull align 8 dereferenceable(192) %0) local_unnamed_addr #11 align 2 {
  %2 = getelementptr inbounds nuw i8, ptr %0, i64 8
  %.promoted = load ptr, ptr %2, align 8
  br label %3

3:                                                ; preds = %.critedge, %1
  %4 = phi ptr [ %6, %.critedge ], [ %.promoted, %1 ]
  %5 = load i8, ptr %4, align 1
  switch i8 %5, label %7 [
    i8 32, label %.critedge
    i8 9, label %.critedge
  ]

.critedge:                                        ; preds = %3, %3
  %6 = getelementptr inbounds i8, ptr %4, i64 1
  store ptr %6, ptr %2, align 8
  br label %3, !llvm.loop !17

7:                                                ; preds = %3
  %8 = getelementptr inbounds nuw i8, ptr %0, i64 32
  store ptr %4, ptr %8, align 8
  %9 = getelementptr inbounds nuw i8, ptr %0, i64 16
  %10 = load ptr, ptr %9, align 8
  %11 = getelementptr inbounds i8, ptr %0, i64 24
  %12 = load i64, ptr %11, align 8
  %13 = getelementptr inbounds i8, ptr %10, i64 %12
  %14 = ptrtoint ptr %13 to i64
  %15 = ptrtoint ptr %4 to i64
  %16 = sub i64 %14, %15
  %17 = load i8, ptr %4, align 1
  %18 = icmp eq i8 %17, 95
  br i1 %18, label %_ZL13isValidIDCharcb.exit.thread.i, label %_ZL13isValidIDCharcb.exit.i

_ZL13isValidIDCharcb.exit.i:                      ; preds = %7
  %19 = and i8 %17, -33
  %20 = add i8 %19, -65
  %21 = icmp ult i8 %20, 26
  br i1 %21, label %_ZL13isValidIDCharcb.exit.thread.i, label %_ZL12lexMacroNameN4llvm9StringRefE.exit

_ZL13isValidIDCharcb.exit.thread.i:               ; preds = %_ZL13isValidIDCharcb.exit.i, %7
  %22 = getelementptr i8, ptr %4, i64 %16
  %.0914.i = getelementptr inbounds i8, ptr %4, i64 1
  %.not15.i = icmp eq i64 %16, 1
  br i1 %.not15.i, label %_ZL12lexMacroNameN4llvm9StringRefE.exit, label %.lr.ph.i

.lr.ph.i:                                         ; preds = %_ZL13isValidIDCharcb.exit.thread.i, %.backedge.i
  %.0916.i = phi ptr [ %.09.i, %.backedge.i ], [ %.0914.i, %_ZL13isValidIDCharcb.exit.thread.i ]
  %23 = load i8, ptr %.0916.i, align 1
  %24 = icmp eq i8 %23, 95
  br i1 %24, label %.backedge.i, label %25

25:                                               ; preds = %.lr.ph.i
  %26 = and i8 %23, -33
  %27 = add i8 %26, -65
  %28 = icmp ult i8 %27, 26
  %29 = add i8 %23, -48
  %30 = icmp ult i8 %29, 10
  %or.cond.i = or i1 %30, %28
  br i1 %or.cond.i, label %.backedge.i, label %_ZL12lexMacroNameN4llvm9StringRefE.exit

.backedge.i:                                      ; preds = %25, %.lr.ph.i
  %.09.i = getelementptr inbounds i8, ptr %.0916.i, i64 1
  %.not.i = icmp eq ptr %.09.i, %13
  br i1 %.not.i, label %_ZL12lexMacroNameN4llvm9StringRefE.exit, label %.lr.ph.i, !llvm.loop !7

_ZL12lexMacroNameN4llvm9StringRefE.exit:          ; preds = %25, %.backedge.i, %_ZL13isValidIDCharcb.exit.i, %_ZL13isValidIDCharcb.exit.thread.i
  %.0.i = phi ptr [ %4, %_ZL13isValidIDCharcb.exit.i ], [ %.0914.i, %_ZL13isValidIDCharcb.exit.thread.i ], [ %.0916.i, %25 ], [ %22, %.backedge.i ]
  store ptr %.0.i, ptr %2, align 8
  %31 = ptrtoint ptr %.0.i to i64
  %32 = sub i64 %31, %15
  %.fca.0.insert = insertvalue { ptr, i64 } poison, ptr %4, 0
  %.fca.1.insert = insertvalue { ptr, i64 } %.fca.0.insert, i64 %32, 1
  ret { ptr, i64 } %.fca.1.insert
}